; Function Attrs: mustprogress nounwind uwtable
define hidden { i32, ptr } @_ZN4llvh3sys2fs16create_directoryERKNS_5TwineEbNS1_5permsE(ptr noundef nonnull align 8 dereferenceable(18) %path, i1 noundef zeroext %IgnoreExisting, i32 noundef %Perms) local_unnamed_addr #0 {
entry:
  %path_storage = alloca %"class.llvh::SmallString.11", align 8
  %add.ptr.i.i.i.i.i.i = getelementptr inbounds i8, ptr %path_storage, i64 16
  store ptr %add.ptr.i.i.i.i.i.i, ptr %path_storage, align 8
  %Size.i.i.i.i.i.i = getelementptr inbounds i8, ptr %path_storage, i64 8
  store i32 0, ptr %Size.i.i.i.i.i.i, align 8
  %Capacity2.i.i.i.i.i.i = getelementptr inbounds i8, ptr %path_storage, i64 12
  store i32 128, ptr %Capacity2.i.i.i.i.i.i, align 4
  %call = call { ptr, i64 } @_ZNK4llvh5Twine25toNullTerminatedStringRefERNS_15SmallVectorImplIcEE(ptr noundef nonnull align 8 dereferenceable(18) %path, ptr noundef nonnull align 8 dereferenceable(16) %path_storage) #29
  %0 = extractvalue { ptr, i64 } %call, 0
  %call2 = call i32 @mkdir(ptr noundef %0, i32 noundef %Perms) #29
  %cmp = icmp eq i32 %call2, -1
  br i1 %cmp, label %if.then, label %if.end8

if.then:                                          ; preds = %entry
  %call3 = tail call ptr @__errno_location() #30
  %1 = load i32, ptr %call3, align 4
  %cmp4.not = icmp eq i32 %1, 17
  %brmerge.not = and i1 %cmp4.not, %IgnoreExisting
  br i1 %brmerge.not, label %if.end8, label %if.then5

if.then5:                                         ; preds = %if.then
  %call7 = tail call noundef nonnull align 8 dereferenceable(8) ptr @_ZNSt3_V216generic_categoryEv() #30
  br label %cleanup

if.end8:                                          ; preds = %if.then, %entry
  %call.i = tail call noundef nonnull align 8 dereferenceable(8) ptr @_ZNSt3_V215system_categoryEv() #30
  br label %cleanup

cleanup:                                          ; preds = %if.end8, %if.then5
  %retval.sroa.0.0 = phi i32 [ %1, %if.then5 ], [ 0, %if.end8 ]
  %retval.sroa.3.0 = phi ptr [ %call7, %if.then5 ], [ %call.i, %if.end8 ]
  %2 = load ptr, ptr %path_storage, align 8
  %cmp.i.i.i.i = icmp eq ptr %2, %add.ptr.i.i.i.i.i.i
  br i1 %cmp.i.i.i.i, label %_ZN4llvh11SmallStringILj128EED2Ev.exit, label %if.then.i.i.i

if.then.i.i.i:                                    ; preds = %cleanup
  call void @free(ptr noundef %2) #29
  br label %_ZN4llvh11SmallStringILj128EED2Ev.exit

_ZN4llvh11SmallStringILj128EED2Ev.exit:           ; preds = %cleanup, %if.then.i.i.i
  %.fca.0.insert = insertvalue { i32, ptr } poison, i32 %retval.sroa.0.0, 0
  %.fca.1.insert = insertvalue { i32, ptr } %.fca.0.insert, ptr %retval.sroa.3.0, 1
  ret { i32, ptr } %.fca.1.insert
}